target datalayout = "e-m:e-p270:32:32-p271:32:32-p272:64:64-i64:64-i128:128-f80:128-n8:16:32:64-S128"
target triple = "x86_64-pc-linux-gnu"

%"class.gmx::ArrayRef" = type { %"struct.gmx::ArrayRefIter", %"struct.gmx::ArrayRefIter" }
%"struct.gmx::ArrayRefIter" = type { ptr }
%"class.gmx::BiasState" = type { %"class.gmx::CoordState", %"class.std::vector", %"class.std::vector.0", %"class.gmx::HistogramSize", [4 x i32], [4 x i32], ptr, %"class.std::vector.5", %"class.std::vector.7" }
%"class.gmx::CoordState" = type { [4 x double], i32, i32 }
%"class.std::vector" = type { %"struct.std::_Vector_base" }
%"struct.std::_Vector_base" = type { %"struct.std::_Vector_base<gmx::PointState, std::allocator<gmx::PointState>>::_Vector_impl" }
%"struct.std::_Vector_base<gmx::PointState, std::allocator<gmx::PointState>>::_Vector_impl" = type { %"struct.std::_Vector_base<gmx::PointState, std::allocator<gmx::PointState>>::_Vector_impl_data" }
%"struct.std::_Vector_base<gmx::PointState, std::allocator<gmx::PointState>>::_Vector_impl_data" = type { ptr, ptr, ptr }
%"class.std::vector.0" = type { %"struct.std::_Vector_base.1" }
%"struct.std::_Vector_base.1" = type { %"struct.std::_Vector_base<double, std::allocator<double>>::_Vector_impl" }
%"struct.std::_Vector_base<double, std::allocator<double>>::_Vector_impl" = type { %"struct.std::_Vector_base<double, std::allocator<double>>::_Vector_impl_data" }
%"struct.std::_Vector_base<double, std::allocator<double>>::_Vector_impl_data" = type { ptr, ptr, ptr }
%"class.gmx::HistogramSize" = type <{ i64, double, i8, [7 x i8], double, i8, [7 x i8], double, double, i8, [7 x i8] }>
%"class.std::vector.5" = type { %"struct.std::_Vector_base.6" }
%"struct.std::_Vector_base.6" = type { %"struct.std::_Vector_base<double, gmx::DefaultInitializationAllocator<double>>::_Vector_impl" }
%"struct.std::_Vector_base<double, gmx::DefaultInitializationAllocator<double>>::_Vector_impl" = type { %"struct.std::_Vector_base<double, gmx::DefaultInitializationAllocator<double>>::_Vector_impl_data" }
%"struct.std::_Vector_base<double, gmx::DefaultInitializationAllocator<double>>::_Vector_impl_data" = type { ptr, ptr, ptr }
%"class.std::vector.7" = type { %"struct.std::_Vector_base.8" }
%"struct.std::_Vector_base.8" = type { %"struct.std::_Vector_base<std::vector<double>, std::allocator<std::vector<double>>>::_Vector_impl" }
%"struct.std::_Vector_base<std::vector<double>, std::allocator<std::vector<double>>>::_Vector_impl" = type { %"struct.std::_Vector_base<std::vector<double>, std::allocator<std::vector<double>>>::_Vector_impl_data" }
%"struct.std::_Vector_base<std::vector<double>, std::allocator<std::vector<double>>>::_Vector_impl_data" = type { ptr, ptr, ptr }
%"class.gmx::PointState" = type { double, double, double, double, double, double, double, i64, double, double, double, double }

; Function Attrs: mustprogress nounwind uwtable
define linkonce_odr noundef nonnull align 4 dereferenceable(4) ptr @_ZNK3gmx12ArrayRefIterIfEdeEv(ptr noundef nonnull align 8 dereferenceable(8) %0) #2 comdat align 2 {
  %2 = alloca ptr, align 8
  store ptr %0, ptr %2, align 8, !tbaa !30
  %3 = load ptr, ptr %2, align 8
  %4 = getelementptr inbounds nuw %"struct.gmx::ArrayRefIter", ptr %3, i32 0, i32 0
  %5 = load ptr, ptr %4, align 8, !tbaa !32
  ret ptr %5
}

; Function Attrs: mustprogress nounwind uwtable
define linkonce_odr noundef nonnull align 8 dereferenceable(8) ptr @_ZN3gmx12ArrayRefIterIfEpLEl(ptr noundef nonnull align 8 dereferenceable(8) %0, i64 noundef %1) #2 comdat align 2 {
  %3 = alloca ptr, align 8
  %4 = alloca i64, align 8
  store ptr %0, ptr %3, align 8, !tbaa !30
  store i64 %1, ptr %4, align 8, !tbaa !9
  %5 = load ptr, ptr %3, align 8
  %6 = load i64, ptr %4, align 8, !tbaa !9
  %7 = getelementptr inbounds nuw %"struct.gmx::ArrayRefIter", ptr %5, i32 0, i32 0
  %8 = load ptr, ptr %7, align 8, !tbaa !32
  %9 = getelementptr inbounds float, ptr %8, i64 %6
  store ptr %9, ptr %7, align 8, !tbaa !32
  ret ptr %5
}

; Function Attrs: mustprogress nounwind uwtable
define linkonce_odr noundef nonnull align 8 dereferenceable(8) ptr @_ZNK3gmx5boost14stl_interfaces2v118iterator_interfaceINS_12ArrayRefIterIfEESt26random_access_iterator_tagfRfPflvE7derivedEv(ptr noundef nonnull align 1 dereferenceable(1) %0) #2 comdat align 2 {
  %2 = alloca ptr, align 8
  store ptr %0, ptr %2, align 8, !tbaa !28
  %3 = load ptr, ptr %2, align 8
  ret ptr %3
}

; Function Attrs: mustprogress nounwind uwtable
define linkonce_odr noundef nonnull align 4 dereferenceable(4) ptr @_ZNK3gmx5boost14stl_interfaces2v118iterator_interfaceINS_12ArrayRefIterIfEESt26random_access_iterator_tagfRfPflvEixIS5_EEDTcmpLclsr3stdE7declvalIRT_EEfp_declsr3stdE7declvalISC_EEEl(ptr noundef nonnull align 1 dereferenceable(1) %0, i64 noundef %1) #2 comdat align 2 {
  %3 = alloca ptr, align 8
  %4 = alloca i64, align 8
  %5 = alloca %"struct.gmx::ArrayRefIter", align 8
  store ptr %0, ptr %3, align 8, !tbaa !28
  store i64 %1, ptr %4, align 8, !tbaa !9
  %6 = load ptr, ptr %3, align 8
  call void @llvm.lifetime.start.p0(i64 8, ptr %5) #28
  %7 = call noundef nonnull align 8 dereferenceable(8) ptr @_ZNK3gmx5boost14stl_interfaces2v118iterator_interfaceINS_12ArrayRefIterIfEESt26random_access_iterator_tagfRfPflvE7derivedEv(ptr noundef nonnull align 1 dereferenceable(1) %6) #28
  call void @llvm.memcpy.p0.p0.i64(ptr align 8 %5, ptr align 8 %7, i64 8, i1 false)
  %8 = load i64, ptr %4, align 8, !tbaa !9
  %9 = call noundef nonnull align 8 dereferenceable(8) ptr @_ZN3gmx12ArrayRefIterIfEpLEl(ptr noundef nonnull align 8 dereferenceable(8) %5, i64 noundef %8) #28
  %10 = call noundef nonnull align 4 dereferenceable(4) ptr @_ZNK3gmx12ArrayRefIterIfEdeEv(ptr noundef nonnull align 8 dereferenceable(8) %5) #28
  call void @llvm.lifetime.end.p0(i64 8, ptr %5) #28
  ret ptr %10
}

; Function Attrs: mustprogress nounwind uwtable
define linkonce_odr noundef nonnull align 4 dereferenceable(4) ptr @_ZNK3gmx8ArrayRefIfEixEm(ptr noundef nonnull align 8 dereferenceable(16) %0, i64 noundef %1) #2 comdat align 2 {
  %3 = alloca ptr, align 8
  %4 = alloca i64, align 8
  store ptr %0, ptr %3, align 8, !tbaa !26
  store i64 %1, ptr %4, align 8, !tbaa !9
  %5 = load ptr, ptr %3, align 8
  %6 = getelementptr inbounds nuw %"class.gmx::ArrayRef", ptr %5, i32 0, i32 0
  %7 = load i64, ptr %4, align 8, !tbaa !9
  %8 = call noundef nonnull align 4 dereferenceable(4) ptr @_ZNK3gmx5boost14stl_interfaces2v118iterator_interfaceINS_12ArrayRefIterIfEESt26random_access_iterator_tagfRfPflvEixIS5_EEDTcmpLclsr3stdE7declvalIRT_EEfp_declsr3stdE7declvalISC_EEEl(ptr noundef nonnull align 1 dereferenceable(1) %6, i64 noundef %7) #28
  ret ptr %8
}

; Function Attrs: mustprogress nounwind uwtable
define linkonce_odr noundef double @_ZNK3gmx10PointState9logPmfSumEv(ptr noundef nonnull align 8 dereferenceable(96) %0) #2 comdat align 2 {
  %2 = alloca ptr, align 8
  store ptr %0, ptr %2, align 8, !tbaa !21
  %3 = load ptr, ptr %2, align 8
  %4 = getelementptr inbounds nuw %"class.gmx::PointState", ptr %3, i32 0, i32 8
  %5 = load double, ptr %4, align 8, !tbaa !25
  ret double %5
}

; Function Attrs: mustprogress nounwind uwtable
define linkonce_odr noundef zeroext i1 @_ZNK3gmx10PointState14inTargetRegionEv(ptr noundef nonnull align 8 dereferenceable(96) %0) #2 comdat align 2 {
  %2 = alloca ptr, align 8
  store ptr %0, ptr %2, align 8, !tbaa !21
  %3 = load ptr, ptr %2, align 8
  %4 = getelementptr inbounds nuw %"class.gmx::PointState", ptr %3, i32 0, i32 2
  %5 = load double, ptr %4, align 8, !tbaa !22
  %6 = fcmp ogt double %5, 0.000000e+00
  ret i1 %6
}

; Function Attrs: mustprogress nounwind uwtable
define linkonce_odr noundef nonnull align 8 dereferenceable(96) ptr @_ZNKSt6vectorIN3gmx10PointStateESaIS1_EEixEm(ptr noundef nonnull align 8 dereferenceable(24) %0, i64 noundef %1) #2 comdat align 2 {
  %3 = alloca ptr, align 8
  %4 = alloca i64, align 8
  store ptr %0, ptr %3, align 8, !tbaa !15
  store i64 %1, ptr %4, align 8, !tbaa !9
  %5 = load ptr, ptr %3, align 8
  %6 = getelementptr inbounds nuw %"struct.std::_Vector_base", ptr %5, i32 0, i32 0
  %7 = getelementptr inbounds nuw %"struct.std::_Vector_base<gmx::PointState, std::allocator<gmx::PointState>>::_Vector_impl_data", ptr %6, i32 0, i32 0
  %8 = load ptr, ptr %7, align 8, !tbaa !20
  %9 = load i64, ptr %4, align 8, !tbaa !9
  %10 = getelementptr inbounds nuw %"class.gmx::PointState", ptr %8, i64 %9
  ret ptr %10
}

; Function Attrs: mustprogress nounwind uwtable
define linkonce_odr noundef i64 @_ZNKSt6vectorIN3gmx10PointStateESaIS1_EE4sizeEv(ptr noundef nonnull align 8 dereferenceable(24) %0) #2 comdat align 2 {
  %2 = alloca ptr, align 8
  store ptr %0, ptr %2, align 8, !tbaa !15
  %3 = load ptr, ptr %2, align 8
  %4 = getelementptr inbounds nuw %"struct.std::_Vector_base", ptr %3, i32 0, i32 0
  %5 = getelementptr inbounds nuw %"struct.std::_Vector_base<gmx::PointState, std::allocator<gmx::PointState>>::_Vector_impl_data", ptr %4, i32 0, i32 1
  %6 = load ptr, ptr %5, align 8, !tbaa !17
  %7 = getelementptr inbounds nuw %"struct.std::_Vector_base", ptr %3, i32 0, i32 0
  %8 = getelementptr inbounds nuw %"struct.std::_Vector_base<gmx::PointState, std::allocator<gmx::PointState>>::_Vector_impl_data", ptr %7, i32 0, i32 0
  %9 = load ptr, ptr %8, align 8, !tbaa !20
  %10 = ptrtoint ptr %6 to i64
  %11 = ptrtoint ptr %9 to i64
  %12 = sub i64 %10, %11
  %13 = sdiv exact i64 %12, 96
  ret i64 %13
}

; Function Attrs: mustprogress uwtable
define void @_ZNK3gmx9BiasState6getPmfENS_8ArrayRefIfEE(ptr noundef nonnull align 8 dereferenceable(240) %0, ptr %1, ptr %2) #0 align 2 {
  %4 = alloca %"class.gmx::ArrayRef", align 8
  %5 = alloca ptr, align 8
  %6 = alloca i64, align 8
  %7 = getelementptr inbounds nuw { ptr, ptr }, ptr %4, i32 0, i32 0
  store ptr %1, ptr %7, align 8
  %8 = getelementptr inbounds nuw { ptr, ptr }, ptr %4, i32 0, i32 1
  store ptr %2, ptr %8, align 8
  store ptr %0, ptr %5, align 8, !tbaa !4
  %9 = load ptr, ptr %5, align 8
  call void @llvm.lifetime.start.p0(i64 8, ptr %6) #28
  store i64 0, ptr %6, align 8, !tbaa !9
  br label %10

10:                                               ; preds = %33, %3
  %11 = load i64, ptr %6, align 8, !tbaa !9
  %12 = getelementptr inbounds nuw %"class.gmx::BiasState", ptr %9, i32 0, i32 1
  %13 = call noundef i64 @_ZNKSt6vectorIN3gmx10PointStateESaIS1_EE4sizeEv(ptr noundef nonnull align 8 dereferenceable(24) %12) #28
  %14 = icmp ult i64 %11, %13
  br i1 %14, label %16, label %15

15:                                               ; preds = %10
  call void @llvm.lifetime.end.p0(i64 8, ptr %6) #28
  br label %36

16:                                               ; preds = %10
  %17 = getelementptr inbounds nuw %"class.gmx::BiasState", ptr %9, i32 0, i32 1
  %18 = load i64, ptr %6, align 8, !tbaa !9
  %19 = call noundef nonnull align 8 dereferenceable(96) ptr @_ZNKSt6vectorIN3gmx10PointStateESaIS1_EEixEm(ptr noundef nonnull align 8 dereferenceable(24) %17, i64 noundef %18) #28
  %20 = call noundef zeroext i1 @_ZNK3gmx10PointState14inTargetRegionEv(ptr noundef nonnull align 8 dereferenceable(96) %19)
  br i1 %20, label %21, label %27

21:                                               ; preds = %16
  %22 = getelementptr inbounds nuw %"class.gmx::BiasState", ptr %9, i32 0, i32 1
  %23 = load i64, ptr %6, align 8, !tbaa !9
  %24 = call noundef nonnull align 8 dereferenceable(96) ptr @_ZNKSt6vectorIN3gmx10PointStateESaIS1_EEixEm(ptr noundef nonnull align 8 dereferenceable(24) %22, i64 noundef %23) #28
  %25 = call noundef double @_ZNK3gmx10PointState9logPmfSumEv(ptr noundef nonnull align 8 dereferenceable(96) %24)
  %26 = fneg double %25
  br label %28

27:                                               ; preds = %16
  br label %28

28:                                               ; preds = %27, %21
  %29 = phi double [ %26, %21 ], [ 0x47EFFFFFE0000000, %27 ]
  %30 = fptrunc double %29 to float
  %31 = load i64, ptr %6, align 8, !tbaa !9
  %32 = call noundef nonnull align 4 dereferenceable(4) ptr @_ZNK3gmx8ArrayRefIfEixEm(ptr noundef nonnull align 8 dereferenceable(16) %4, i64 noundef %31)
  store float %30, ptr %32, align 4, !tbaa !11
  br label %33

33:                                               ; preds = %28
  %34 = load i64, ptr %6, align 8, !tbaa !9
  %35 = add i64 %34, 1
  store i64 %35, ptr %6, align 8, !tbaa !9
  br label %10, !llvm.loop !13

36:                                               ; preds = %15
  ret void
}