; Function Attrs: mustprogress nofree norecurse nosync nounwind memory(read, argmem: readwrite, inaccessiblemem: none) uwtable
define void @_ZNK3gmx9BiasState6getPmfENS_8ArrayRefIfEE(ptr noundef nonnull readonly align 8 captures(none) dereferenceable(240) %0, ptr writeonly captures(none) %1, ptr readnone captures(none) %2) local_unnamed_addr #0 align 2 {
  %4 = getelementptr inbounds nuw i8, ptr %0, i64 40
  %5 = getelementptr inbounds nuw i8, ptr %0, i64 48
  %6 = load ptr, ptr %5, align 8, !tbaa !4
  %7 = load ptr, ptr %4, align 8, !tbaa !10
  %.not = icmp eq ptr %6, %7
  br i1 %.not, label %._crit_edge, label %.lr.ph.preheader

.lr.ph.preheader:                                 ; preds = %3
  %8 = ptrtoint ptr %6 to i64
  %9 = ptrtoint ptr %7 to i64
  %10 = sub i64 %8, %9
  %11 = sdiv exact i64 %10, 96
  %umax = tail call i64 @llvm.umax.i64(i64 %11, i64 1)
  br label %.lr.ph

._crit_edge:                                      ; preds = %21, %3
  ret void

.lr.ph:                                           ; preds = %.lr.ph.preheader, %21
  %.05 = phi i64 [ %24, %21 ], [ 0, %.lr.ph.preheader ]
  %12 = getelementptr inbounds nuw %"class.gmx::PointState", ptr %7, i64 %.05
  %13 = getelementptr inbounds nuw i8, ptr %12, i64 16
  %14 = load double, ptr %13, align 8, !tbaa !11
  %15 = fcmp ogt double %14, 0.000000e+00
  br i1 %15, label %16, label %21

16:                                               ; preds = %.lr.ph
  %17 = getelementptr inbounds nuw i8, ptr %12, i64 64
  %18 = load double, ptr %17, align 8, !tbaa !15
  %19 = fptrunc double %18 to float
  %20 = fneg float %19
  br label %21

21:                                               ; preds = %.lr.ph, %16
  %22 = phi float [ %20, %16 ], [ 0x47EFFFFFE0000000, %.lr.ph ]
  %23 = getelementptr inbounds float, ptr %1, i64 %.05
  store float %22, ptr %23, align 4, !tbaa !16
  %24 = add nuw i64 %.05, 1
  %exitcond.not = icmp eq i64 %24, %umax
  br i1 %exitcond.not, label %._crit_edge, label %.lr.ph, !llvm.loop !18
}